target datalayout = "e-m:e-p270:32:32-p271:32:32-p272:64:64-i64:64-i128:128-f80:128-n8:16:32:64-S128"
target triple = "x86_64-pc-linux-gnu"

@.str.4 = private unnamed_addr constant [2 x i8] c"\0A\00", align 1
@.str.5 = private unnamed_addr constant [37 x i8] c"    write_btor [options] [filename]\0A\00", align 1
@.str.6 = private unnamed_addr constant [49 x i8] c"Write a BTOR description of the current design.\0A\00", align 1
@.str.7 = private unnamed_addr constant [6 x i8] c"  -v\0A\00", align 1
@.str.8 = private unnamed_addr constant [54 x i8] c"    Add comments and indentation to BTOR output file\0A\00", align 1
@.str.9 = private unnamed_addr constant [6 x i8] c"  -s\0A\00", align 1
@.str.10 = private unnamed_addr constant [55 x i8] c"    Output only a single bad property for all asserts\0A\00", align 1
@.str.11 = private unnamed_addr constant [6 x i8] c"  -c\0A\00", align 1
@.str.12 = private unnamed_addr constant [71 x i8] c"    Output cover properties using 'bad' statements instead of asserts\0A\00", align 1
@.str.13 = private unnamed_addr constant [17 x i8] c"  -i <filename>\0A\00", align 1
@.str.14 = private unnamed_addr constant [60 x i8] c"    Create additional info file with auxiliary information\0A\00", align 1
@.str.15 = private unnamed_addr constant [6 x i8] c"  -x\0A\00", align 1
@.str.16 = private unnamed_addr constant [62 x i8] c"    Output symbols for internal netnames (starting with '$')\0A\00", align 1
@.str.17 = private unnamed_addr constant [21 x i8] c"  -ywmap <filename>\0A\00", align 1
@.str.18 = private unnamed_addr constant [71 x i8] c"    Create a map file for conversion to and from Yosys witness traces\0A\00", align 1

; Function Attrs: mustprogress uwtable
define internal void @_ZN12_GLOBAL__N_111BtorBackend4helpEv(ptr noundef nonnull align 8 dereferenceable(136) %0) unnamed_addr #4 align 2 {
  %2 = alloca ptr, align 8
  store ptr %0, ptr %2, align 8, !tbaa !6
  call void (ptr, ...) @_ZN5Yosys3logEPKcz(ptr noundef @.str.4)
  call void (ptr, ...) @_ZN5Yosys3logEPKcz(ptr noundef @.str.5)
  call void (ptr, ...) @_ZN5Yosys3logEPKcz(ptr noundef @.str.4)
  call void (ptr, ...) @_ZN5Yosys3logEPKcz(ptr noundef @.str.6)
  call void (ptr, ...) @_ZN5Yosys3logEPKcz(ptr noundef @.str.4)
  call void (ptr, ...) @_ZN5Yosys3logEPKcz(ptr noundef @.str.7)
  call void (ptr, ...) @_ZN5Yosys3logEPKcz(ptr noundef @.str.8)
  call void (ptr, ...) @_ZN5Yosys3logEPKcz(ptr noundef @.str.4)
  call void (ptr, ...) @_ZN5Yosys3logEPKcz(ptr noundef @.str.9)
  call void (ptr, ...) @_ZN5Yosys3logEPKcz(ptr noundef @.str.10)
  call void (ptr, ...) @_ZN5Yosys3logEPKcz(ptr noundef @.str.4)
  call void (ptr, ...) @_ZN5Yosys3logEPKcz(ptr noundef @.str.11)
  call void (ptr, ...) @_ZN5Yosys3logEPKcz(ptr noundef @.str.12)
  call void (ptr, ...) @_ZN5Yosys3logEPKcz(ptr noundef @.str.4)
  call void (ptr, ...) @_ZN5Yosys3logEPKcz(ptr noundef @.str.13)
  call void (ptr, ...) @_ZN5Yosys3logEPKcz(ptr noundef @.str.14)
  call void (ptr, ...) @_ZN5Yosys3logEPKcz(ptr noundef @.str.4)
  call void (ptr, ...) @_ZN5Yosys3logEPKcz(ptr noundef @.str.15)
  call void (ptr, ...) @_ZN5Yosys3logEPKcz(ptr noundef @.str.16)
  call void (ptr, ...) @_ZN5Yosys3logEPKcz(ptr noundef @.str.4)
  call void (ptr, ...) @_ZN5Yosys3logEPKcz(ptr noundef @.str.17)
  call void (ptr, ...) @_ZN5Yosys3logEPKcz(ptr noundef @.str.18)
  call void (ptr, ...) @_ZN5Yosys3logEPKcz(ptr noundef @.str.4)
  ret void
}